; Function Attrs: null_pointer_is_valid sspstrong uwtable
define internal i32 @dissect_gmr1_dtap(ptr noundef %0, ptr noundef %1, ptr noundef %2, ptr readnone captures(none) %3) #0 {
  %5 = alloca ptr, align 8
  %6 = alloca ptr, align 8
  %7 = alloca i32, align 4
  %8 = alloca i32, align 4
  call void @llvm.lifetime.start.p0(i64 8, ptr nonnull %5) #3
  call void @llvm.lifetime.start.p0(i64 8, ptr nonnull %6) #3
  call void @llvm.lifetime.start.p0(i64 4, ptr nonnull %7) #3
  call void @llvm.lifetime.start.p0(i64 4, ptr nonnull %8) #3
  %9 = tail call i32 @tvb_captured_length(ptr noundef %0)
  %10 = tail call zeroext i8 @tvb_get_uint8(ptr noundef %0, i32 noundef 0)
  %11 = and i8 %10, 15
  %12 = icmp eq i8 %11, 6
  br i1 %12, label %17, label %13

13:                                               ; preds = %4
  %14 = load ptr, ptr @gsm_dtap_handle, align 8
  %15 = tail call i32 @call_dissector(ptr noundef %14, ptr noundef %0, ptr noundef %1, ptr noundef %2)
  %16 = tail call i32 @tvb_captured_length(ptr noundef %0)
  br label %54

17:                                               ; preds = %4
  %18 = getelementptr inbounds nuw i8, ptr %1, i64 8
  %19 = load ptr, ptr %18, align 8
  tail call void @col_append_str(ptr noundef %19, i32 noundef 25, ptr noundef nonnull @.str.10)
  %20 = load ptr, ptr %18, align 8
  %21 = tail call ptr @val_to_str(i32 noundef 6, ptr noundef nonnull @gmr1_pd_short_vals, ptr noundef nonnull @.str.12)
  tail call void (ptr, i32, ptr, ...) @col_append_fstr(ptr noundef %20, i32 noundef 25, ptr noundef nonnull @.str.11, ptr noundef %21)
  %22 = tail call zeroext i8 @tvb_get_uint8(ptr noundef %0, i32 noundef 1)
  %23 = zext i8 %22 to i32
  call void @gmr1_get_msg_params(i32 noundef 6, i8 noundef zeroext %22, ptr noundef nonnull %6, ptr noundef nonnull %7, ptr noundef nonnull %8, ptr noundef nonnull %5)
  %24 = load ptr, ptr %6, align 8
  %25 = icmp eq ptr %24, null
  %26 = load i32, ptr @proto_gmr1_dtap, align 4
  br i1 %25, label %27, label %32

27:                                               ; preds = %17
  %28 = call ptr (ptr, i32, ptr, i32, i32, ptr, ...) @proto_tree_add_protocol_format(ptr noundef %2, i32 noundef %26, ptr noundef %0, i32 noundef 0, i32 noundef %9, ptr noundef nonnull @.str.13, i32 noundef %23)
  %29 = load i32, ptr @ett_gmr1_dtap, align 4
  %30 = call ptr @proto_item_add_subtree(ptr noundef %28, i32 noundef %29)
  %31 = load ptr, ptr %18, align 8
  call void (ptr, i32, ptr, ...) @col_append_fstr(ptr noundef %31, i32 noundef 25, ptr noundef nonnull @.str.14, i32 noundef %23)
  br label %38

32:                                               ; preds = %17
  %33 = call ptr (ptr, i32, ptr, i32, i32, ptr, ...) @proto_tree_add_protocol_format(ptr noundef %2, i32 noundef %26, ptr noundef %0, i32 noundef 0, i32 noundef -1, ptr noundef nonnull @.str.15, ptr noundef nonnull %24)
  %34 = load i32, ptr @ett_gmr1_dtap, align 4
  %35 = call ptr @proto_item_add_subtree(ptr noundef %33, i32 noundef %34)
  %36 = load ptr, ptr %18, align 8
  %37 = load ptr, ptr %6, align 8
  call void (ptr, i32, ptr, ...) @col_append_fstr(ptr noundef %36, i32 noundef 25, ptr noundef nonnull @.str.16, ptr noundef %37)
  br label %38

38:                                               ; preds = %32, %27
  %.049 = phi ptr [ %30, %27 ], [ %35, %32 ]
  %39 = load i32, ptr @hf_gmr1_dtap_protocol_discriminator, align 4
  %40 = call ptr @proto_tree_add_uint(ptr noundef %.049, i32 noundef %39, ptr noundef %0, i32 noundef 1, i32 noundef 1, i32 noundef 6)
  %41 = load i32, ptr %8, align 4
  %42 = load ptr, ptr %6, align 8
  %.not = icmp eq ptr %42, null
  %43 = select i1 %.not, ptr @.str.18, ptr %42
  %44 = call ptr (ptr, i32, ptr, i32, i32, i32, ptr, ...) @proto_tree_add_uint_format(ptr noundef %.049, i32 noundef %41, ptr noundef %0, i32 noundef 1, i32 noundef 1, i32 noundef %23, ptr noundef nonnull @.str.17, ptr noundef nonnull %43)
  %45 = load ptr, ptr %5, align 8
  %.not54 = icmp eq ptr %45, null
  br i1 %.not54, label %48, label %46

46:                                               ; preds = %38
  %47 = add i32 %9, -2
  call void %45(ptr noundef %0, ptr noundef %.049, ptr noundef %1, i32 noundef 2, i32 noundef %47)
  br label %52

48:                                               ; preds = %38
  %49 = load i32, ptr @hf_gmr1_dtap_message_elements, align 4
  %50 = add i32 %9, -2
  %51 = call ptr @proto_tree_add_item(ptr noundef %.049, i32 noundef %49, ptr noundef %0, i32 noundef 2, i32 noundef %50, i32 noundef 0)
  br label %52

52:                                               ; preds = %48, %46
  %53 = call i32 @tvb_captured_length(ptr noundef %0)
  br label %54

54:                                               ; preds = %52, %13
  %.048 = phi i32 [ %16, %13 ], [ %53, %52 ]
  call void @llvm.lifetime.end.p0(i64 4, ptr nonnull %8) #3
  call void @llvm.lifetime.end.p0(i64 4, ptr nonnull %7) #3
  call void @llvm.lifetime.end.p0(i64 8, ptr nonnull %6) #3
  call void @llvm.lifetime.end.p0(i64 8, ptr nonnull %5) #3
  ret i32 %.048
}